; Function Attrs: nounwind uwtable
define ptr @l___private_Std_Tactic_BVDecide_LRAT_Internal_Formula_RupAddSound_0__Std_Tactic_BVDecide_LRAT_Internal_DefaultClause_reduce__fold__fn_match__3_splitter___rarg(ptr noundef %0, ptr noundef %1, ptr noundef %2, ptr noundef %3, ptr noundef %4) local_unnamed_addr #0 {
  %6 = ptrtoint ptr %0 to i64
  %7 = and i64 %6, 1
  %.not.i29 = icmp eq i64 %7, 0
  br i1 %.not.i29, label %11, label %8

8:                                                ; preds = %5
  %9 = lshr i64 %6, 1
  %10 = trunc i64 %9 to i32
  br label %lean_obj_tag.exit

11:                                               ; preds = %5
  %12 = getelementptr i8, ptr %0, i64 4
  %.val.i = load i32, ptr %12, align 4
  %13 = lshr i32 %.val.i, 24
  br label %lean_obj_tag.exit

lean_obj_tag.exit:                                ; preds = %8, %11
  %.0.i = phi i32 [ %10, %8 ], [ %13, %11 ]
  switch i32 %.0.i, label %69 [
    i32 0, label %14
    i32 1, label %32
    i32 2, label %50
  ]

14:                                               ; preds = %lean_obj_tag.exit
  %15 = ptrtoint ptr %3 to i64
  %16 = and i64 %15, 1
  %.not44 = icmp eq i64 %16, 0
  br i1 %.not44, label %17, label %lean_dec.exit22

17:                                               ; preds = %14
  %18 = load i32, ptr %3, align 4, !tbaa !4
  %19 = icmp sgt i32 %18, 1
  br i1 %19, label %20, label %22, !prof !9

20:                                               ; preds = %17
  %21 = add nsw i32 %18, -1
  store i32 %21, ptr %3, align 4, !tbaa !4
  br label %lean_dec.exit22

22:                                               ; preds = %17
  %.not.i = icmp eq i32 %18, 0
  br i1 %.not.i, label %lean_dec.exit22, label %23

23:                                               ; preds = %22
  tail call void @lean_dec_ref_cold(ptr noundef nonnull %3) #3
  br label %lean_dec.exit22

lean_dec.exit22:                                  ; preds = %23, %22, %20, %14
  %24 = ptrtoint ptr %1 to i64
  %25 = and i64 %24, 1
  %.not45 = icmp eq i64 %25, 0
  br i1 %.not45, label %26, label %lean_inc.exit19

26:                                               ; preds = %lean_dec.exit22
  %.val.i30 = load i32, ptr %1, align 4, !tbaa !4
  %27 = icmp sgt i32 %.val.i30, 0
  br i1 %27, label %28, label %30, !prof !9

28:                                               ; preds = %26
  %29 = add nuw i32 %.val.i30, 1
  store i32 %29, ptr %1, align 4, !tbaa !4
  br label %lean_inc.exit19

30:                                               ; preds = %26
  %.not.i31 = icmp eq i32 %.val.i30, 0
  br i1 %.not.i31, label %lean_inc.exit19, label %31

31:                                               ; preds = %30
  tail call void @lean_inc_ref_cold(ptr noundef nonnull %1) #3
  br label %lean_inc.exit19

32:                                               ; preds = %lean_obj_tag.exit
  %33 = ptrtoint ptr %3 to i64
  %34 = and i64 %33, 1
  %.not42 = icmp eq i64 %34, 0
  br i1 %.not42, label %35, label %lean_dec.exit21

35:                                               ; preds = %32
  %36 = load i32, ptr %3, align 4, !tbaa !4
  %37 = icmp sgt i32 %36, 1
  br i1 %37, label %38, label %40, !prof !9

38:                                               ; preds = %35
  %39 = add nsw i32 %36, -1
  store i32 %39, ptr %3, align 4, !tbaa !4
  br label %lean_dec.exit21

40:                                               ; preds = %35
  %.not.i23 = icmp eq i32 %36, 0
  br i1 %.not.i23, label %lean_dec.exit21, label %41

41:                                               ; preds = %40
  tail call void @lean_dec_ref_cold(ptr noundef nonnull %3) #3
  br label %lean_dec.exit21

lean_dec.exit21:                                  ; preds = %41, %40, %38, %32
  %42 = ptrtoint ptr %2 to i64
  %43 = and i64 %42, 1
  %.not43 = icmp eq i64 %43, 0
  br i1 %.not43, label %44, label %lean_inc.exit19

44:                                               ; preds = %lean_dec.exit21
  %.val.i32 = load i32, ptr %2, align 4, !tbaa !4
  %45 = icmp sgt i32 %.val.i32, 0
  br i1 %45, label %46, label %48, !prof !9

46:                                               ; preds = %44
  %47 = add nuw i32 %.val.i32, 1
  store i32 %47, ptr %2, align 4, !tbaa !4
  br label %lean_inc.exit19

48:                                               ; preds = %44
  %.not.i33 = icmp eq i32 %.val.i32, 0
  br i1 %.not.i33, label %lean_inc.exit19, label %49

49:                                               ; preds = %48
  tail call void @lean_inc_ref_cold(ptr noundef nonnull %2) #3
  br label %lean_inc.exit19

50:                                               ; preds = %lean_obj_tag.exit
  %51 = getelementptr inbounds nuw i8, ptr %0, i64 8
  %52 = load ptr, ptr %51, align 8, !tbaa !10
  %53 = ptrtoint ptr %52 to i64
  %54 = and i64 %53, 1
  %.not = icmp eq i64 %54, 0
  br i1 %.not, label %55, label %lean_inc.exit17

55:                                               ; preds = %50
  %.val.i35 = load i32, ptr %52, align 4, !tbaa !4
  %56 = icmp sgt i32 %.val.i35, 0
  br i1 %56, label %57, label %59, !prof !9

57:                                               ; preds = %55
  %58 = add nuw i32 %.val.i35, 1
  store i32 %58, ptr %52, align 4, !tbaa !4
  br label %lean_inc.exit17

59:                                               ; preds = %55
  %.not.i36 = icmp eq i32 %.val.i35, 0
  br i1 %.not.i36, label %lean_inc.exit17, label %60

60:                                               ; preds = %59
  tail call void @lean_inc_ref_cold(ptr noundef nonnull %52) #3
  br label %lean_inc.exit17

lean_inc.exit17:                                  ; preds = %60, %59, %57, %50
  br i1 %.not.i29, label %61, label %lean_dec.exit20

61:                                               ; preds = %lean_inc.exit17
  %62 = load i32, ptr %0, align 4, !tbaa !4
  %63 = icmp sgt i32 %62, 1
  br i1 %63, label %64, label %66, !prof !9

64:                                               ; preds = %61
  %65 = add nsw i32 %62, -1
  store i32 %65, ptr %0, align 4, !tbaa !4
  br label %lean_dec.exit20

66:                                               ; preds = %61
  %.not.i25 = icmp eq i32 %62, 0
  br i1 %.not.i25, label %lean_dec.exit20, label %67

67:                                               ; preds = %66
  tail call void @lean_dec_ref_cold(ptr noundef nonnull %0) #3
  br label %lean_dec.exit20

lean_dec.exit20:                                  ; preds = %67, %66, %64, %lean_inc.exit17
  %68 = tail call ptr @lean_apply_1(ptr noundef %3, ptr noundef %52) #3
  br label %lean_inc.exit19

69:                                               ; preds = %lean_obj_tag.exit
  %70 = ptrtoint ptr %3 to i64
  %71 = and i64 %70, 1
  %.not46 = icmp eq i64 %71, 0
  br i1 %.not46, label %72, label %lean_dec.exit

72:                                               ; preds = %69
  %73 = load i32, ptr %3, align 4, !tbaa !4
  %74 = icmp sgt i32 %73, 1
  br i1 %74, label %75, label %77, !prof !9

75:                                               ; preds = %72
  %76 = add nsw i32 %73, -1
  store i32 %76, ptr %3, align 4, !tbaa !4
  br label %lean_dec.exit

77:                                               ; preds = %72
  %.not.i27 = icmp eq i32 %73, 0
  br i1 %.not.i27, label %lean_dec.exit, label %78

78:                                               ; preds = %77
  tail call void @lean_dec_ref_cold(ptr noundef nonnull %3) #3
  br label %lean_dec.exit

lean_dec.exit:                                    ; preds = %78, %77, %75, %69
  %79 = ptrtoint ptr %4 to i64
  %80 = and i64 %79, 1
  %.not47 = icmp eq i64 %80, 0
  br i1 %.not47, label %81, label %lean_inc.exit19

81:                                               ; preds = %lean_dec.exit
  %.val.i38 = load i32, ptr %4, align 4, !tbaa !4
  %82 = icmp sgt i32 %.val.i38, 0
  br i1 %82, label %83, label %85, !prof !9

83:                                               ; preds = %81
  %84 = add nuw i32 %.val.i38, 1
  store i32 %84, ptr %4, align 4, !tbaa !4
  br label %lean_inc.exit19

85:                                               ; preds = %81
  %.not.i39 = icmp eq i32 %.val.i38, 0
  br i1 %.not.i39, label %lean_inc.exit19, label %86

86:                                               ; preds = %85
  tail call void @lean_inc_ref_cold(ptr noundef nonnull %4) #3
  br label %lean_inc.exit19

lean_inc.exit19:                                  ; preds = %lean_dec.exit, %83, %85, %86, %lean_dec.exit21, %46, %48, %49, %lean_dec.exit22, %28, %30, %31, %lean_dec.exit20
  %.0 = phi ptr [ %68, %lean_dec.exit20 ], [ %1, %31 ], [ %1, %30 ], [ %1, %28 ], [ %1, %lean_dec.exit22 ], [ %2, %49 ], [ %2, %48 ], [ %2, %46 ], [ %2, %lean_dec.exit21 ], [ %4, %86 ], [ %4, %85 ], [ %4, %83 ], [ %4, %lean_dec.exit ]
  ret ptr %.0
}